; Function Attrs: nounwind sspstrong uwtable
define internal void @virtio_9p_device_start_hw(ptr noundef captures(none) initializes((48, 56)) %0) #0 {
  %2 = getelementptr inbounds nuw i8, ptr %0, i64 40
  %3 = load ptr, ptr %2, align 8
  %4 = tail call i64 @qvirtio_get_features(ptr noundef %3) #13
  %5 = and i64 %4, -1610612737
  %6 = load ptr, ptr %2, align 8
  tail call void @qvirtio_set_features(ptr noundef %6, i64 noundef %5) #13
  %7 = load ptr, ptr %2, align 8
  %8 = load ptr, ptr @alloc, align 8
  %9 = tail call ptr @qvirtqueue_setup(ptr noundef %7, ptr noundef %8, i16 noundef zeroext 0) #13
  %10 = getelementptr inbounds nuw i8, ptr %0, i64 48
  store ptr %9, ptr %10, align 8
  %11 = load ptr, ptr %2, align 8
  tail call void @qvirtio_set_driver_ok(ptr noundef %11) #13
  ret void
}